target datalayout = "e-m:e-p270:32:32-p271:32:32-p272:64:64-i64:64-i128:128-f80:128-n8:16:32:64-S128"
target triple = "x86_64-pc-linux-gnu"

%struct.FunctionCallInfoBaseData = type { ptr, ptr, ptr, i32, i8, i16, [0 x %struct.NullableDatum] }
%struct.NullableDatum = type { i64, i8 }
%struct.pg_uuid_t = type { [16 x i8] }

; Function Attrs: inlinehint nounwind uwtable
define internal ptr @DatumGetPointer(i64 noundef %0) #2 {
  %2 = alloca i64, align 8
  store i64 %0, ptr %2, align 8
  %3 = load i64, ptr %2, align 8
  %4 = inttoptr i64 %3 to ptr
  ret ptr %4
}

; Function Attrs: inlinehint nounwind uwtable
define internal i64 @UInt16GetDatum(i16 noundef zeroext %0) #2 {
  %2 = alloca i16, align 2
  store i16 %0, ptr %2, align 2
  %3 = load i16, ptr %2, align 2
  %4 = zext i16 %3 to i64
  ret i64 %4
}

; Function Attrs: inlinehint nounwind uwtable
define internal ptr @DatumGetUUIDP(i64 noundef %0) #2 {
  %2 = alloca i64, align 8
  store i64 %0, ptr %2, align 8
  %3 = load i64, ptr %2, align 8
  %4 = call ptr @DatumGetPointer(i64 noundef %3)
  ret ptr %4
}

; Function Attrs: nounwind uwtable
define dso_local i64 @uuid_extract_version(ptr noundef %0) #0 {
  %2 = alloca i64, align 8
  %3 = alloca ptr, align 8
  %4 = alloca ptr, align 8
  %5 = alloca i16, align 2
  %6 = alloca i32, align 4
  store ptr %0, ptr %3, align 8
  call void @llvm.lifetime.start.p0(i64 8, ptr %4) #10
  %7 = load ptr, ptr %3, align 8
  %8 = getelementptr inbounds nuw %struct.FunctionCallInfoBaseData, ptr %7, i32 0, i32 6
  %9 = getelementptr inbounds [0 x %struct.NullableDatum], ptr %8, i64 0, i64 0
  %10 = getelementptr inbounds nuw %struct.NullableDatum, ptr %9, i32 0, i32 0
  %11 = load i64, ptr %10, align 8
  %12 = call ptr @DatumGetUUIDP(i64 noundef %11)
  store ptr %12, ptr %4, align 8
  call void @llvm.lifetime.start.p0(i64 2, ptr %5) #10
  %13 = load ptr, ptr %4, align 8
  %14 = getelementptr inbounds nuw %struct.pg_uuid_t, ptr %13, i32 0, i32 0
  %15 = getelementptr inbounds [16 x i8], ptr %14, i64 0, i64 8
  %16 = load i8, ptr %15, align 1
  %17 = zext i8 %16 to i32
  %18 = and i32 %17, 192
  %19 = icmp ne i32 %18, 128
  br i1 %19, label %20, label %26

20:                                               ; preds = %1
  br label %21

21:                                               ; preds = %20
  %22 = load ptr, ptr %3, align 8
  %23 = getelementptr inbounds nuw %struct.FunctionCallInfoBaseData, ptr %22, i32 0, i32 4
  store i8 1, ptr %23, align 4
  store i64 0, ptr %2, align 8
  store i32 1, ptr %6, align 4
  br label %36

24:                                               ; No predecessors!
  br label %25

25:                                               ; preds = %24
  br label %26

26:                                               ; preds = %25, %1
  %27 = load ptr, ptr %4, align 8
  %28 = getelementptr inbounds nuw %struct.pg_uuid_t, ptr %27, i32 0, i32 0
  %29 = getelementptr inbounds [16 x i8], ptr %28, i64 0, i64 6
  %30 = load i8, ptr %29, align 1
  %31 = zext i8 %30 to i32
  %32 = ashr i32 %31, 4
  %33 = trunc i32 %32 to i16
  store i16 %33, ptr %5, align 2
  %34 = load i16, ptr %5, align 2
  %35 = call i64 @UInt16GetDatum(i16 noundef zeroext %34)
  store i64 %35, ptr %2, align 8
  store i32 1, ptr %6, align 4
  br label %36

36:                                               ; preds = %26, %21
  call void @llvm.lifetime.end.p0(i64 2, ptr %5) #10
  call void @llvm.lifetime.end.p0(i64 8, ptr %4) #10
  %37 = load i64, ptr %2, align 8
  ret i64 %37
}