; Function Attrs: mustprogress nofree norecurse nosync nounwind willreturn memory(read, argmem: readwrite, inaccessiblemem: none) uwtable
define dso_local range(i64 0, 16) i64 @uuid_extract_version(ptr noundef captures(none) %0) local_unnamed_addr #6 {
  %2 = getelementptr inbounds nuw i8, ptr %0, i64 32
  %3 = load i64, ptr %2, align 8
  %4 = inttoptr i64 %3 to ptr
  %5 = getelementptr inbounds nuw i8, ptr %4, i64 8
  %6 = load i8, ptr %5, align 1
  %.not = icmp slt i8 %6, -64
  br i1 %.not, label %9, label %7

7:                                                ; preds = %1
  %8 = getelementptr inbounds nuw i8, ptr %0, i64 28
  store i8 1, ptr %8, align 4
  br label %14

9:                                                ; preds = %1
  %10 = getelementptr inbounds nuw i8, ptr %4, i64 6
  %11 = load i8, ptr %10, align 1
  %12 = lshr i8 %11, 4
  %13 = zext nneg i8 %12 to i64
  br label %14

14:                                               ; preds = %9, %7
  %.0 = phi i64 [ 0, %7 ], [ %13, %9 ]
  ret i64 %.0
}